-----BEGIN PRIVATE KEY-----
MIIEvAIBADANBgkqhkiG9w0BAQEFAASCBKYwggSiAgEAAoIBAQDgSY45fiJg+tTY
e7PmMaPKWyQtOM9M1fuPQbvKJTDr7dw7yL+HXwr8+8esJhE013Wtz0misX20kCH2
T6TG4nBIeHxzig6cDhkD1GwitZHuG8/5wpWgYGj7S9hmQFwbHKeUQoxYrOQSMIqs
65W3D4O62J1LTSX7O6wnVjb45qOLV38Q8WpPbcJ/ydfOZbZhlcig/IUtHcpf7zlm
yYsJY1Fn7JPRlgMtKIWTE8Zxh8GG38ji+v2BNpE9hgQ4zpE8H0n9WzdsnWTP1iaa
O3IcoLUbkB1JW8kKPmK0H26xp2LHaSmjbhPVvlL8VLe3PZ3XK9+FCvd6zZMuVW/k
dvO2ETjjAgMBAAECggEASdKMGIpWwHrvAc49mV/vXFSBZM0VFmI8KZvmNpPlNVKW
MatStzjmQfyRbS0ebrkYR7w5rW4kRQFH3G28e6XedUwLEnB3fI/7VdJeQVJoFOpc
mwWcACybgVMmiAlZB6d31QnObgWCECagDmiAX7+giShxJW7gOIAcmtn6wBQR8nOd
ZThfsolZB7p/onlL1hWQIHpIY68UJ2ATnIq7YDghxKZtFF/mJATrOoZIpN0ljHGn
2JtaPJflRpGx0krYptcyjqOib+VvszGRfpkGnNPZN5OhriQnJ/9rZ6GL1EEoy5Iu
z4e61QxKOLpFl+WqGYVTDl5wffN4VDZUjW4YITxPoQKBgQDxqobmAC51NeAabeVf
471YsKDESkupGvelZ9YsZRPCyPr8ISafroFXNS59KoFgP0GPc0clvjrXM6NgoDH7
/z3ERHz6Nilk9vV1AIdCHtyuGv31G49dsUutzoMK5SoCKavDxMXGCI2DMFu0+wYP
Zk1cKqwojfjqSTfJPGd3XGLEcQKBgQDtlyXf4eipDK5NM/Zb+1q7LiAYfpFtwHv5
q/ePXBPQmLLvD+xu8rgjInSosVPAyOEqxsk06ZyDVaA456exHnQn7tctR6OhLqem
JWGrEuWTubLEPjOnVlqj0Y4PWZkNcCThZ6ojnTtDly3OgMq9oADEv4aFAgbqn191
7iHQmIcskwKBgGsh2q2JtQ629IMi5sVsk1sG6i46dXIhB1nnP1Xs9SarrEArfhDZ
7nK3m8VXG4WMZUbvpsG/pBwUwz+ppJ7/FuW0KudNLWqZ5FSbCFsyjUgNpTmMnzC8
0TzayNMCpm3RBVlDGR3iWsGmpXEEuzoGcxMBw9Iypf9OuBFY2tFaPlqxAoGAWqHV
6NmcjyAvPXQc/mmb6ttlkvJ1N5C9ujhHb4CIboJRf7BrWMduRrjWF6PNdzUp7890
4aJb+h2nyQ1VgtNDLBiILNWvLcVGXrLT1xaWTQwBjarMuYDPgr5lmqVrJR0qdHG/
DWblPJtm9edbb4qhwGvvPL3RNZ8mIy57577HkdECgYB6DHw4E7331NfCfww8S+mo
2GRy3XrcMcrvNs60rCJbVuieoTXo4JOOu0BSP+QvFjEV7Rd5Mx0vD+FvRWw1gOH7
7Bm2MbJ7geKWMgSqIg6qVlFABvTonSyBhSO173uTj1qsHt0Et5PaKZSUXH7WdpUU
m7zaOvB40AlWKiaAXkmh0w==
-----END PRIVATE KEY-----
Certificate:
    Data:
        Version: 1 (0x0)
        Serial Number: 1 (0x1)
        Signature Algorithm: md5WithRSAEncryption
        Issuer: O=The Sample Company, OU=Joke Security/emailAddress=joke@security.com, L=Metropolis, ST=New York, C=US, CN=Joker
        Validity
            Not Before: Mar  8 17:03:47 2012 GMT
            Not After : Mar  8 17:03:47 2013 GMT
        Subject: C=US, ST=New York, O=The Sample Company, OU=AQM, CN=127.0.0.1
        Subject Public Key Info:
            Public Key Algorithm: rsaEncryption
                Public-Key: (2048 bit)
                Modulus:
                    00:e0:49:8e:39:7e:22:60:fa:d4:d8:7b:b3:e6:31:
                    a3:ca:5b:24:2d:38:cf:4c:d5:fb:8f:41:bb:ca:25:
                    30:eb:ed:dc:3b:c8:bf:87:5f:0a:fc:fb:c7:ac:26:
                    11:34:d7:75:ad:cf:49:a2:b1:7d:b4:90:21:f6:4f:
                    a4:c6:e2:70:48:78:7c:73:8a:0e:9c:0e:19:03:d4:
                    6c:22:b5:91:ee:1b:cf:f9:c2:95:a0:60:68:fb:4b:
                    d8:66:40:5c:1b:1c:a7:94:42:8c:58:ac:e4:12:30:
                    8a:ac:eb:95:b7:0f:83:ba:d8:9d:4b:4d:25:fb:3b:
                    ac:27:56:36:f8:e6:a3:8b:57:7f:10:f1:6a:4f:6d:
                    c2:7f:c9:d7:ce:65:b6:61:95:c8:a0:fc:85:2d:1d:
                    ca:5f:ef:39:66:c9:8b:09:63:51:67:ec:93:d1:96:
                    03:2d:28:85:93:13:c6:71:87:c1:86:df:c8:e2:fa:
                    fd:81:36:91:3d:86:04:38:ce:91:3c:1f:49:fd:5b:
                    37:6c:9d:64:cf:d6:26:9a:3b:72:1c:a0:b5:1b:90:
                    1d:49:5b:c9:0a:3e:62:b4:1f:6e:b1:a7:62:c7:69:
                    29:a3:6e:13:d5:be:52:fc:54:b7:b7:3d:9d:d7:2b:
                    df:85:0a:f7:7a:cd:93:2e:55:6f:e4:76:f3:b6:11:
                    38:e3
                Exponent: 65537 (0x10001)
    Signature Algorithm: md5WithRSAEncryption
        12:35:74:e9:14:09:da:5c:02:8a:29:5e:29:b8:98:2c:24:88:
        35:18:f6:0c:aa:88:ed:1f:6f:c9:b9:09:4f:c2:ab:f5:50:c3:
        a2:13:53:48:05:8d:ad:58:3b:4c:92:19:dd:da:81:6d:b5:c6:
        0f:a7:db:8a:ca:c6:90:73:d0:24:48:eb:63:a4:44:a2:05:14:
        ef:45:b6:0d:1d:92:19:40:5d:ae:be:9b:02:0e:46:a7:4f:7c:
        0e:b3:b7:89:e3:d8:bb:f4:a4:07:4a:ba:9a:54:29:ea:40:16:
        bc:d3:21:7d:e1:b4:1b:d2:dc:42:89:c9:68:5a:40:1e:5f:be:
        40:62:5c:d6:aa:e4:79:d4:8c:01:e2:04:c1:78:81:0e:b9:76:
        02:6b:25:90:b5:e6:66:02:05:52:98:65:6e:89:d9:be:c7:ad:
        c1:32:b5:26:6a:89:39:8f:83:00:38:12:42:0f:e9:a6:54:a7:
        70:4f:79:db:f5:ac:4a:fd:3d:a7:f2:15:94:98:b0:cc:64:a8:
        24:0a:aa:d5:06:c1:97:b3:5c:ba:c9:27:a1:e9:82:8b:de:b8:
        9c:d2:91:3c:b6:90:4f:07:09:07:35:e1:76:cc:80:0e:ad:7e:
        08:2b:51:ac:b8:1b:ab:7c:4e:26:88:7e:5b:82:6a:fb:83:d8:
        49:d3:14:07
-----BEGIN CERTIFICATE-----
MIIDcDCCAlgCAQEwDQYJKoZIhvcNAQEEBQAwgZwxGzAZBgNVBAoTElRoZSBTYW1w
bGUgQ29tcGFueTEWMBQGA1UECxMNSm9rZSBTZWN1cml0eTEgMB4GCSqGSIb3DQEJ
ARYRam9rZUBzZWN1cml0eS5jb20xEzARBgNVBAcTCk1ldHJvcG9saXMxETAPBgNV
BAgTCE5ldyBZb3JrMQswCQYDVQQGEwJVUzEOMAwGA1UEAxMFSm9rZXIwHhcNMTIw
MzA4MTcwMzQ3WhcNMTMwMzA4MTcwMzQ3WjBfMQswCQYDVQQGEwJVUzERMA8GA1UE
CBMITmV3IFlvcmsxGzAZBgNVBAoTElRoZSBTYW1wbGUgQ29tcGFueTEMMAoGA1UE
CxMDQVFNMRIwEAYDVQQDEwkxMjcuMC4wLjEwggEiMA0GCSqGSIb3DQEBAQUAA4IB
DwAwggEKAoIBAQDgSY45fiJg+tTYe7PmMaPKWyQtOM9M1fuPQbvKJTDr7dw7yL+H
Xwr8+8esJhE013Wtz0misX20kCH2T6TG4nBIeHxzig6cDhkD1GwitZHuG8/5wpWg
YGj7S9hmQFwbHKeUQoxYrOQSMIqs65W3D4O62J1LTSX7O6wnVjb45qOLV38Q8WpP
bcJ/ydfOZbZhlcig/IUtHcpf7zlmyYsJY1Fn7JPRlgMtKIWTE8Zxh8GG38ji+v2B
NpE9hgQ4zpE8H0n9WzdsnWTP1iaaO3IcoLUbkB1JW8kKPmK0H26xp2LHaSmjbhPV
vlL8VLe3PZ3XK9+FCvd6zZMuVW/kdvO2ETjjAgMBAAEwDQYJKoZIhvcNAQEEBQAD
ggEBABI1dOkUCdpcAoopXim4mCwkiDUY9gyqiO0fb8m5CU/Cq/VQw6ITU0gFja1Y
O0ySGd3agW21xg+n24rKxpBz0CRI62OkRKIFFO9Ftg0dkhlAXa6+mwIORqdPfA6z
t4nj2Lv0pAdKuppUKepAFrzTIX3htBvS3EKJyWhaQB5fvkBiXNaq5HnUjAHiBMF4
gQ65dgJrJZC15mYCBVKYZW6J2b7HrcEytSZqiTmPgwA4EkIP6aZUp3BPedv1rEr9
PafyFZSYsMxkqCQKqtUGwZezXLrJJ6HpgoveuJzSkTy2kE8HCQc14XbMgA6tfggr
Uay4G6t8TiaIfluCavuD2EnTFAc=
-----END CERTIFICATE-----
