Certificate:
    Data:
        Version: 1 (0x0)
        Serial Number: 1 (0x1)
        Signature Algorithm: sha256WithRSAEncryption
        Issuer: O=Sainsmograf.com, OU=CA Auth/emailAddress=arif@sainsmograf.com, L=Bandung, ST=West Java, C=ID, CN=Arif Widi Nugroho
        Validity
            Not Before: May 10 13:53:25 2012 GMT
            Not After : May 10 13:53:25 2014 GMT
        Subject: C=ID, ST=West Java, O=Sainsmograf.com, OU=Environmental Modelling, CN=aqmrpc.sainsmograf.com
        Subject Public Key Info:
            Public Key Algorithm: rsaEncryption
                Public-Key: (2048 bit)
                Modulus:
                    00:eb:b2:4a:51:f7:be:27:9b:50:a2:e4:0c:10:7c:
                    dd:a1:0e:57:b6:64:88:07:9c:00:86:7f:ca:50:54:
                    fd:5d:ab:df:c1:32:9f:1b:a0:53:57:99:75:3c:7a:
                    e0:a9:a7:97:c2:74:99:ee:11:d7:a5:2f:f1:af:59:
                    0e:2f:7b:dc:d1:88:ac:ae:4b:10:6d:b6:32:42:ef:
                    a6:a7:73:20:6a:58:2b:b7:84:92:ec:d7:b4:6a:67:
                    cd:62:ba:74:d2:09:59:06:19:9a:c9:a2:75:02:e5:
                    ed:f7:8d:0a:7b:35:e8:48:bc:5a:de:3c:56:e5:cc:
                    25:7b:29:bc:71:56:4b:83:89:a2:2a:0a:dc:0f:36:
                    e1:74:8e:dc:55:f6:97:aa:51:f0:69:65:15:90:f9:
                    3c:10:70:46:8c:3d:f5:d0:0f:58:de:88:47:85:ee:
                    d4:e7:d0:e9:d8:c3:d6:0c:51:0e:1b:88:85:a1:9e:
                    84:20:37:fb:cf:8f:30:1d:54:e5:11:52:57:2c:a3:
                    89:0b:72:b5:0e:d9:9b:73:5b:49:53:9d:5f:6a:01:
                    aa:95:21:15:4b:d0:0b:59:3b:20:e3:c2:7f:23:3c:
                    ed:ea:d8:d1:64:a9:65:8c:a5:76:5f:09:dc:2b:63:
                    35:dc:53:cd:3e:b8:4b:55:be:d5:1a:30:d1:9f:b2:
                    82:2d
                Exponent: 65537 (0x10001)
    Signature Algorithm: sha256WithRSAEncryption
        02:01:e0:17:b1:9a:7b:fc:2e:ee:34:01:ba:ae:f1:de:f9:99:
        28:8b:f3:8e:7a:91:b6:5b:bc:45:e9:b4:94:b5:92:d8:46:ee:
        87:b8:2e:de:f5:c2:9e:bd:dc:a3:19:85:f6:f5:9f:ef:c4:60:
        2e:07:56:de:8e:a5:a3:9b:b8:2f:51:34:0b:95:cc:66:62:29:
        d6:3b:df:45:79:b0:85:ee:1a:0f:c0:52:93:8b:8d:9c:e3:db:
        1d:a2:56:29:7a:ea:47:46:85:fd:e6:ab:dd:f4:7e:02:c6:d4:
        95:b0:9e:bc:ee:a0:93:cd:ac:13:b9:39:e4:e2:ff:c5:3f:36:
        cc:6c:cf:a1:31:e4:fd:84:55:86:2a:c5:1f:50:b4:a4:57:10:
        ac:f9:7d:ad:84:d0:79:5b:17:6e:e2:b2:5a:cf:d0:e1:eb:4e:
        de:c5:08:87:3f:fa:bb:16:2a:4f:c5:4e:b1:91:bd:c8:a3:60:
        5b:97:06:03:95:6e:74:b9:05:39:f2:99:43:75:f4:75:1b:ac:
        3e:de:48:56:9b:ed:b5:dd:be:0a:59:8e:0b:b1:46:1d:a9:8f:
        04:bb:f9:e6:a3:84:67:e5:6f:5f:0a:f0:94:24:fc:4e:3a:1c:
        f5:26:19:65:8f:bc:8b:ef:75:f4:e5:16:cb:3e:77:12:6f:44:
        7b:20:1b:3d
-----BEGIN CERTIFICATE-----
MIIDkzCCAnsCAQEwDQYJKoZIhvcNAQELBQAwgaAxGDAWBgNVBAoTD1NhaW5zbW9n
cmFmLmNvbTEQMA4GA1UECxMHQ0EgQXV0aDEjMCEGCSqGSIb3DQEJARYUYXJpZkBz
YWluc21vZ3JhZi5jb20xEDAOBgNVBAcTB0JhbmR1bmcxEjAQBgNVBAgTCVdlc3Qg
SmF2YTELMAkGA1UEBhMCSUQxGjAYBgNVBAMTEUFyaWYgV2lkaSBOdWdyb2hvMB4X
DTEyMDUxMDEzNTMyNVoXDTE0MDUxMDEzNTMyNVowfjELMAkGA1UEBhMCSUQxEjAQ
BgNVBAgTCVdlc3QgSmF2YTEYMBYGA1UEChMPU2FpbnNtb2dyYWYuY29tMSAwHgYD
VQQLExdFbnZpcm9ubWVudGFsIE1vZGVsbGluZzEfMB0GA1UEAxMWYXFtcnBjLnNh
aW5zbW9ncmFmLmNvbTCCASIwDQYJKoZIhvcNAQEBBQADggEPADCCAQoCggEBAOuy
SlH3viebUKLkDBB83aEOV7ZkiAecAIZ/ylBU/V2r38EynxugU1eZdTx64Kmnl8J0
me4R16Uv8a9ZDi973NGIrK5LEG22MkLvpqdzIGpYK7eEkuzXtGpnzWK6dNIJWQYZ
msmidQLl7feNCns16Ei8Wt48VuXMJXspvHFWS4OJoioK3A824XSO3FX2l6pR8Gll
FZD5PBBwRow99dAPWN6IR4Xu1OfQ6djD1gxRDhuIhaGehCA3+8+PMB1U5RFSVyyj
iQtytQ7Zm3NbSVOdX2oBqpUhFUvQC1k7IOPCfyM87erY0WSpZYyldl8J3CtjNdxT
zT64S1W+1Row0Z+ygi0CAwEAATANBgkqhkiG9w0BAQsFAAOCAQEAAgHgF7Gae/wu
7jQBuq7x3vmZKIvzjnqRtlu8Rem0lLWS2Ebuh7gu3vXCnr3coxmF9vWf78RgLgdW
3o6lo5u4L1E0C5XMZmIp1jvfRXmwhe4aD8BSk4uNnOPbHaJWKXrqR0aF/ear3fR+
AsbUlbCevO6gk82sE7k55OL/xT82zGzPoTHk/YRVhirFH1C0pFcQrPl9rYTQeVsX
buKyWs/Q4etO3sUIhz/6uxYqT8VOsZG9yKNgW5cGA5VudLkFOfKZQ3X0dRusPt5I
Vpvttd2+ClmOC7FGHamPBLv55qOEZ+VvXwrwlCT8Tjoc9SYZZY+8i+919OUWyz53
Em9EeyAbPQ==
-----END CERTIFICATE-----
