Certificate:
    Data:
        Version: 1 (0x0)
        Serial Number: 1 (0x1)
        Signature Algorithm: sha1WithRSAEncryption
        Issuer: O=Sainsmograf.com, OU=Tech/emailAddress=arif@sainsmograf.com, L=Bandung, ST=West Java, C=ID, CN=Arif Widi Nugroho
        Validity
            Not Before: Apr  7 15:02:58 2012 GMT
            Not After : Apr  7 15:02:58 2014 GMT
        Subject: C=ID, ST=West Java, O=Sainsmograf.com, OU=Environmental Modelling, CN=AQM RPC Server
        Subject Public Key Info:
            Public Key Algorithm: rsaEncryption
                Public-Key: (2048 bit)
                Modulus:
                    00:ac:b0:e5:89:13:65:aa:04:ca:7e:5b:a1:f3:4b:
                    3d:af:3e:09:d5:be:b4:fb:92:70:ad:e7:61:18:55:
                    50:f2:24:d7:4a:ba:cc:a0:37:c8:54:35:f2:8a:bb:
                    b6:f3:c5:3f:f7:7b:76:5f:c5:9d:6b:bf:57:bb:aa:
                    ab:21:32:d9:79:73:6d:94:df:95:65:f2:bb:2a:41:
                    d5:85:22:6e:b9:8b:bc:49:1d:26:dd:00:21:ba:32:
                    fc:f9:aa:bf:6d:b7:66:06:a8:3f:ea:e5:88:d9:b8:
                    c9:e0:38:d3:6f:d9:6f:c4:3b:66:ea:94:e9:9d:13:
                    f0:93:cd:c7:44:0b:2b:41:e9:f9:6b:87:bf:99:f7:
                    fa:f7:d9:e1:0d:e1:6c:56:cc:00:91:00:53:be:7e:
                    f6:48:ea:d7:64:fe:30:95:49:c5:71:50:78:87:65:
                    bb:d5:a9:2e:00:e8:c0:5d:94:73:a8:8f:bb:46:c0:
                    16:a3:3b:da:c4:39:62:b0:e4:99:a0:9a:20:b9:7a:
                    b2:09:00:a3:ac:f7:ad:ec:a6:2e:51:15:19:54:59:
                    50:aa:96:ee:a7:84:6c:a2:61:87:18:e7:8a:b3:de:
                    90:a4:b8:6f:1b:86:9b:5f:70:0f:38:fe:35:8f:b5:
                    39:37:b0:c0:11:82:46:ef:58:5a:2b:12:2a:07:ea:
                    a9:73
                Exponent: 65537 (0x10001)
    Signature Algorithm: sha1WithRSAEncryption
        6b:7f:01:2e:8c:e8:f4:d0:11:b7:21:69:90:c4:4f:33:69:c3:
        85:e4:b2:c2:cc:67:11:1b:94:7f:80:3c:2f:42:50:78:f6:cf:
        d4:40:54:e7:8f:5b:64:bf:66:ec:b9:85:f5:40:23:7d:8a:fe:
        82:fc:c6:1b:51:29:a2:63:a8:58:f1:11:fc:25:33:9f:e9:f5:
        89:66:14:c7:3e:98:48:17:a8:87:39:7d:f1:4a:6e:8e:09:45:
        3b:c5:59:8b:dd:71:8c:c1:c1:13:cb:0b:99:6a:47:94:bd:0c:
        7e:86:65:45:53:99:c1:89:46:80:a3:08:07:7e:2a:14:9e:b6:
        3a:ca:a4:41:c4:89:fa:a9:d6:b7:a7:bc:37:c1:ea:cf:81:4a:
        3f:6e:ea:c9:46:f4:d4:8c:61:48:c3:be:77:43:f7:8d:72:e6:
        de:2f:df:97:57:04:07:38:19:b5:d9:6e:a8:97:09:fe:9b:9f:
        5a:2a:60:69:cc:1d:8a:6b:72:59:b7:fc:da:87:70:e7:ab:67:
        03:2c:a1:e0:18:d9:b0:36:97:34:02:13:73:7f:7a:18:fe:dd:
        ba:e5:a7:06:db:3f:23:81:91:92:e1:5c:0e:99:0b:d9:7c:be:
        da:f0:b8:70:d1:af:91:be:ba:8f:58:be:89:29:90:98:ba:14:
        e3:7a:cb:2c
-----BEGIN CERTIFICATE-----
MIIDiDCCAnACAQEwDQYJKoZIhvcNAQEFBQAwgZ0xGDAWBgNVBAoTD1NhaW5zbW9n
cmFmLmNvbTENMAsGA1UECxMEVGVjaDEjMCEGCSqGSIb3DQEJARYUYXJpZkBzYWlu
c21vZ3JhZi5jb20xEDAOBgNVBAcTB0JhbmR1bmcxEjAQBgNVBAgTCVdlc3QgSmF2
YTELMAkGA1UEBhMCSUQxGjAYBgNVBAMTEUFyaWYgV2lkaSBOdWdyb2hvMB4XDTEy
MDQwNzE1MDI1OFoXDTE0MDQwNzE1MDI1OFowdjELMAkGA1UEBhMCSUQxEjAQBgNV
BAgTCVdlc3QgSmF2YTEYMBYGA1UEChMPU2FpbnNtb2dyYWYuY29tMSAwHgYDVQQL
ExdFbnZpcm9ubWVudGFsIE1vZGVsbGluZzEXMBUGA1UEAxMOQVFNIFJQQyBTZXJ2
ZXIwggEiMA0GCSqGSIb3DQEBAQUAA4IBDwAwggEKAoIBAQCssOWJE2WqBMp+W6Hz
Sz2vPgnVvrT7knCt52EYVVDyJNdKusygN8hUNfKKu7bzxT/3e3ZfxZ1rv1e7qqsh
Mtl5c22U35Vl8rsqQdWFIm65i7xJHSbdACG6Mvz5qr9tt2YGqD/q5YjZuMngONNv
2W/EO2bqlOmdE/CTzcdECytB6flrh7+Z9/r32eEN4WxWzACRAFO+fvZI6tdk/jCV
ScVxUHiHZbvVqS4A6MBdlHOoj7tGwBajO9rEOWKw5JmgmiC5erIJAKOs963spi5R
FRlUWVCqlu6nhGyiYYcY54qz3pCkuG8bhptfcA84/jWPtTk3sMARgkbvWForEioH
6qlzAgMBAAEwDQYJKoZIhvcNAQEFBQADggEBAGt/AS6M6PTQEbchaZDETzNpw4Xk
ssLMZxEblH+APC9CUHj2z9RAVOePW2S/Zuy5hfVAI32K/oL8xhtRKaJjqFjxEfwl
M5/p9YlmFMc+mEgXqIc5ffFKbo4JRTvFWYvdcYzBwRPLC5lqR5S9DH6GZUVTmcGJ
RoCjCAd+KhSetjrKpEHEifqp1renvDfB6s+BSj9u6slG9NSMYUjDvndD941y5t4v
35dXBAc4GbXZbqiXCf6bn1oqYGnMHYprclm3/NqHcOerZwMsoeAY2bA2lzQCE3N/
ehj+3brlpwbbPyOBkZLhXA6ZC9l8vtrwuHDRr5G+uo9YvokpkJi6FON6yyw=
-----END CERTIFICATE-----
