Certificate:
    Data:
        Version: 1 (0x0)
        Serial Number: 5 (0x5)
        Signature Algorithm: sha1WithRSAEncryption
        Issuer: O=Sainsmograf.com, L=Bandung, ST=West Java, C=ID, CN=Arif Widi Nugroho
        Validity
            Not Before: May  9 07:28:42 2012 GMT
            Not After : May  9 07:28:42 2014 GMT
        Subject: C=ID, ST=West Java, O=Sainsmograf.com, CN=aqmrpc
        Subject Public Key Info:
            Public Key Algorithm: rsaEncryption
                Public-Key: (2048 bit)
                Modulus:
                    00:d4:46:f8:07:4b:f8:84:9d:09:d3:9a:b1:cb:0a:
                    58:bd:35:7d:39:9a:69:9e:68:f1:ff:4d:25:bf:60:
                    33:14:78:56:32:26:26:a1:92:a1:fc:9c:53:ef:05:
                    c8:21:75:aa:6d:28:4d:42:26:ca:48:23:eb:0f:9e:
                    9f:91:b1:ce:e1:e5:bd:91:f4:a3:e9:30:75:0b:ef:
                    2f:df:7d:3c:31:5d:db:b6:95:f4:b0:80:1f:62:4d:
                    bf:a2:dd:94:91:4a:c3:b0:c2:2c:1d:f5:b2:a7:cf:
                    c4:d4:20:39:03:d0:0f:5d:ab:1d:1c:e7:d8:71:cc:
                    75:1b:91:3a:9b:84:cd:6c:57:e8:25:7b:74:da:87:
                    7a:36:15:c3:d4:63:48:42:08:de:7b:df:03:f5:f4:
                    26:bb:65:9b:a8:6c:52:3f:86:53:34:e0:fd:c9:d4:
                    7b:d4:99:56:fe:66:3f:34:99:82:1d:d2:54:ac:35:
                    17:a3:ca:0b:ec:6d:c6:2b:63:0b:a0:2d:dc:73:e8:
                    58:1e:9c:4e:77:c8:d8:a6:e0:fb:0b:46:7d:a2:1e:
                    fc:43:fe:12:42:88:c1:c2:ce:4c:0e:c1:71:07:eb:
                    a2:02:94:3d:cb:8b:a9:d5:ee:29:f2:b4:02:7a:eb:
                    39:d2:c0:d3:38:f3:85:ab:18:70:24:00:cf:77:52:
                    c9:c9
                Exponent: 65537 (0x10001)
    Signature Algorithm: sha1WithRSAEncryption
        16:95:c5:5a:6f:c5:0f:77:a4:f8:f4:3b:3b:3b:6b:77:26:f5:
        e0:9c:f0:95:9f:bc:a6:74:85:3f:0c:84:d1:8a:d4:f2:bb:41:
        57:59:77:f5:81:8e:10:a4:90:4a:52:fe:c7:be:ab:b6:a2:59:
        db:f4:1d:92:b3:99:c5:66:52:78:14:d3:ef:5e:52:10:57:69:
        10:35:f8:44:ca:f3:f7:32:30:17:a3:31:ef:bb:45:e8:30:71:
        42:d9:8a:d3:73:87:3a:5b:bd:2c:11:8c:58:c6:48:7a:fb:ec:
        bb:62:0a:4c:eb:07:3b:d3:12:b6:ed:e4:2a:cb:d4:b5:f2:db:
        77:36:ce:8c:51:c8:49:97:62:5f:5f:7f:99:9f:20:a3:dc:3b:
        f1:64:7f:0f:2f:8e:4a:b6:32:1a:bd:8b:6b:78:26:ec:79:d9:
        08:dd:56:25:99:66:2a:5b:27:c7:fb:cc:7b:ec:31:11:77:05:
        ff:52:96:9d:66:7f:b6:b0:a8:b7:a7:71:29:a6:00:67:2b:f7:
        c7:2e:a0:eb:81:77:3a:3a:c2:ee:dc:3c:8d:f7:ab:49:47:39:
        d4:cd:3d:cf:87:30:ab:d4:45:9a:07:2b:6a:fa:55:f1:39:d0:
        d0:43:53:c8:e9:2b:24:69:0f:da:31:a1:5c:11:2b:56:1e:22:
        8b:80:d5:ec
-----BEGIN CERTIFICATE-----
MIIDKTCCAhECAQUwDQYJKoZIhvcNAQEFBQAwaTEYMBYGA1UEChMPU2FpbnNtb2dy
YWYuY29tMRAwDgYDVQQHEwdCYW5kdW5nMRIwEAYDVQQIEwlXZXN0IEphdmExCzAJ
BgNVBAYTAklEMRowGAYDVQQDExFBcmlmIFdpZGkgTnVncm9obzAeFw0xMjA1MDkw
NzI4NDJaFw0xNDA1MDkwNzI4NDJaMEwxCzAJBgNVBAYTAklEMRIwEAYDVQQIEwlX
ZXN0IEphdmExGDAWBgNVBAoTD1NhaW5zbW9ncmFmLmNvbTEPMA0GA1UEAxMGYXFt
cnBjMIIBIjANBgkqhkiG9w0BAQEFAAOCAQ8AMIIBCgKCAQEA1Eb4B0v4hJ0J05qx
ywpYvTV9OZppnmjx/00lv2AzFHhWMiYmoZKh/JxT7wXIIXWqbShNQibKSCPrD56f
kbHO4eW9kfSj6TB1C+8v3308MV3btpX0sIAfYk2/ot2UkUrDsMIsHfWyp8/E1CA5
A9APXasdHOfYccx1G5E6m4TNbFfoJXt02od6NhXD1GNIQgjee98D9fQmu2WbqGxS
P4ZTNOD9ydR71JlW/mY/NJmCHdJUrDUXo8oL7G3GK2MLoC3cc+hYHpxOd8jYpuD7
C0Z9oh78Q/4SQojBws5MDsFxB+uiApQ9y4up1e4p8rQCeus50sDTOPOFqxhwJADP
d1LJyQIDAQABMA0GCSqGSIb3DQEBBQUAA4IBAQAWlcVab8UPd6T49Ds7O2t3JvXg
nPCVn7ymdIU/DITRitTyu0FXWXf1gY4QpJBKUv7Hvqu2olnb9B2Ss5nFZlJ4FNPv
XlIQV2kQNfhEyvP3MjAXozHvu0XoMHFC2YrTc4c6W70sEYxYxkh6++y7YgpM6wc7
0xK27eQqy9S18tt3Ns6MUchJl2JfX3+ZnyCj3DvxZH8PL45KtjIavYtreCbsedkI
3VYlmWYqWyfH+8x77DERdwX/UpadZn+2sKi3p3EppgBnK/fHLqDrgXc6OsLu3DyN
96tJRznUzT3PhzCr1EWaBytq+lXxOdDQQ1PI6SskaQ/aMaFcEStWHiKLgNXs
-----END CERTIFICATE-----
