-----BEGIN PRIVATE KEY-----
MIIEvQIBADANBgkqhkiG9w0BAQEFAASCBKcwggSjAgEAAoIBAQDyRoBvIl77eiSd
5hTmDphl+tIx56Xk+8212l6GlCP3+oxlDE0pAw3sY4An1++52gtaWB1jDcHnYezL
uICBl/8pgSKJ6gmINHLIaMyB0qPdS5+7vM81bmbCRHk7+VQBcDHsEk3t27Sia2ew
sQb9WoeX8Q/0r0tGEBNwlmFnRXudWG6hZAnkZ9sRF852q3CuLBRO4lUWN5Hm2BwV
GmZdsbOLTJNNx4+hVuHgJdWhgQopNEnWarcnAN/QpWic7tGKNNgb0nF0/53APGpT
PPYzzCQYHMdPAYoIRhKVkfOJHssf4hsi2Hc1IBRsIdMR/V4a9PNmojFnNM+/JELd
tJKIRQ09AgMBAAECggEADIg1EIqYmy2AQ2KpZhUPMQc+ZDJ1VFjqFSQMi62SBrvB
E2EFhL+Rss6azHTRA64RtESmkH8frpZUJ12N2CZCnqT9YmDmyVLdNRymp3h73XCR
/KYRmdPyIM5l7wJApCpniqyPt2QL/fLMVElz8RsDtIpVpvSCUkd2mfZNZ4giksrs
ej9FdASMabuxQEe+S1CJF9kZ4gOP6NsAiZJ2kSr78PnxcELbGpzJPxjbOHniIykX
9RpG/lEtkZjQsTXRbv9Bxs1Fw6oKYcJiZxc8pKiezyZ+TKDK6phXBtFtJ2yDlOl+
JyvY1kWCDF1RgDEn3N6u1x+SUmhC9e3tmaaGKgfrQQKBgQD6J1GOefLUaf87OW+g
mipUlSjU3QmibIzV1uOnPVD9+SKviRj2TFbEbF89ljqrwXzvoEH2k62zzhLT8p/n
XZ6GjjGRiB9O/N6s3JbbBUh9OjNteHQYJdUaJdJKLtLhlfPgdBSQt6HmzcRPl/gQ
LaTRQXIl2HSHOhet7VhPSCgrxQKBgQD38AwpTtFs4WL1tuQFArn6TA91anU6gmGF
oh8szcwCcw9G1ISo7bPatGjuCCu9oLap8R6gNav81FPhY0jTJ9pgMu4CcOSvIxAY
4LNqyJ97YwYWseuSjcSrxo7hUlEfWYThEf5Zar0ic6vCMSxq7F2Y3xPYDqGr4nib
AxQ79X8bGQKBgQDlVABnnpKoexgaglg8oril3CyXoKABgIRIUf1YR1Ul0C0lQYlZ
2rg80KErg7r71KElyQRP+ijnSsdl+OrxH5mB/3+fzGvvbNDzJjNCTQCclSuqcx/z
N1O66et0SKLZXjA6mBB2b3KEdiU/VrF6m22azOXJnjuN8QreT1WDMUJqhQKBgHAQ
qg6Jt5MVFJunPM0e/FyrwFj781yszdOPAbRImKuKwh7rs8J/Hkn+PWdJfivJ1oZd
m9AiMkim1/sJ20LFwqi0nGuyB0s59+6msbHUWHF2wqvDY4zsUzapGq+xe0VGOw9Y
CLT1z+MgkUPG4iK6D1wniFqh0mVUidrWu3CWeAsRAoGAXcn4GL5pjg3O8VNHbxrW
1upg2wEZFFSX2wff2lg9NxVnKPa3Id7hYVkU21UhBHU/PCRllLtYHI+H2kQgXatg
KLi5uoXGz3jIICsangg+JFB2AyHtkh2INyxTnJ9IJA25056F5dyHevwclacgTWPi
IwtmiTWHgeL2uUTte7/VV1Y=
-----END PRIVATE KEY-----
Certificate:
    Data:
        Version: 1 (0x0)
        Serial Number: 2 (0x2)
        Signature Algorithm: md5WithRSAEncryption
        Issuer: O=Sainsmograf.com, OU=Tech/emailAddress=arif@sainsmograf.com, L=Bandung, ST=West Java, C=ID, CN=Arif Widi Nugroho
        Validity
            Not Before: Mar  9 16:10:43 2012 GMT
            Not After : Mar  9 16:10:43 2014 GMT
        Subject: C=ID, ST=West Java, O=Sainsmograf.com, OU=Environmental Modeling, CN=AQM RPC Server
        Subject Public Key Info:
            Public Key Algorithm: rsaEncryption
                Public-Key: (2048 bit)
                Modulus:
                    00:f2:46:80:6f:22:5e:fb:7a:24:9d:e6:14:e6:0e:
                    98:65:fa:d2:31:e7:a5:e4:fb:cd:b5:da:5e:86:94:
                    23:f7:fa:8c:65:0c:4d:29:03:0d:ec:63:80:27:d7:
                    ef:b9:da:0b:5a:58:1d:63:0d:c1:e7:61:ec:cb:b8:
                    80:81:97:ff:29:81:22:89:ea:09:88:34:72:c8:68:
                    cc:81:d2:a3:dd:4b:9f:bb:bc:cf:35:6e:66:c2:44:
                    79:3b:f9:54:01:70:31:ec:12:4d:ed:db:b4:a2:6b:
                    67:b0:b1:06:fd:5a:87:97:f1:0f:f4:af:4b:46:10:
                    13:70:96:61:67:45:7b:9d:58:6e:a1:64:09:e4:67:
                    db:11:17:ce:76:ab:70:ae:2c:14:4e:e2:55:16:37:
                    91:e6:d8:1c:15:1a:66:5d:b1:b3:8b:4c:93:4d:c7:
                    8f:a1:56:e1:e0:25:d5:a1:81:0a:29:34:49:d6:6a:
                    b7:27:00:df:d0:a5:68:9c:ee:d1:8a:34:d8:1b:d2:
                    71:74:ff:9d:c0:3c:6a:53:3c:f6:33:cc:24:18:1c:
                    c7:4f:01:8a:08:46:12:95:91:f3:89:1e:cb:1f:e2:
                    1b:22:d8:77:35:20:14:6c:21:d3:11:fd:5e:1a:f4:
                    f3:66:a2:31:67:34:cf:bf:24:42:dd:b4:92:88:45:
                    0d:3d
                Exponent: 65537 (0x10001)
    Signature Algorithm: md5WithRSAEncryption
        96:b8:64:b1:65:2a:99:25:91:0e:11:95:2f:eb:b6:78:a4:b9:
        6c:c6:ec:92:8b:dc:f2:bd:40:26:1f:36:06:a8:af:7a:81:c3:
        4e:ee:71:25:46:60:21:0d:c9:e5:4d:07:b3:87:4d:ed:a1:dd:
        24:a9:e8:56:2f:8a:03:9d:2a:c8:cf:13:94:19:d3:df:c1:96:
        52:97:9d:f1:29:73:80:71:83:b4:36:87:26:d7:f9:1e:4a:9e:
        2c:23:b4:a2:2d:f6:2d:c4:d8:bd:ac:f5:46:85:19:85:f9:80:
        de:30:92:84:85:5c:5b:e1:99:f4:89:c6:06:09:0c:37:65:7b:
        47:e9:f8:4b:fe:df:ac:13:a2:ce:4a:35:2f:6e:c5:e1:da:78:
        c2:77:b3:ff:f5:1c:47:2d:cd:97:81:6c:1f:48:35:d8:f6:b3:
        9a:67:bb:ed:25:16:eb:a1:84:80:57:cf:21:bc:cd:a1:b0:18:
        90:04:f5:80:ce:92:72:85:a4:80:87:16:92:48:cc:b8:81:b0:
        ba:48:17:77:89:90:ea:0d:01:d3:51:3b:16:f7:ea:cf:b1:34:
        37:7b:16:9d:89:88:44:f8:f0:5f:db:7e:d8:ee:83:5d:b9:d3:
        0a:34:97:c2:07:b4:98:fc:8f:20:5e:53:cf:ba:4e:6e:81:83:
        15:d4:0f:61
-----BEGIN CERTIFICATE-----
MIIDhzCCAm8CAQIwDQYJKoZIhvcNAQEEBQAwgZ0xGDAWBgNVBAoTD1NhaW5zbW9n
cmFmLmNvbTENMAsGA1UECxMEVGVjaDEjMCEGCSqGSIb3DQEJARYUYXJpZkBzYWlu
c21vZ3JhZi5jb20xEDAOBgNVBAcTB0JhbmR1bmcxEjAQBgNVBAgTCVdlc3QgSmF2
YTELMAkGA1UEBhMCSUQxGjAYBgNVBAMTEUFyaWYgV2lkaSBOdWdyb2hvMB4XDTEy
MDMwOTE2MTA0M1oXDTE0MDMwOTE2MTA0M1owdTELMAkGA1UEBhMCSUQxEjAQBgNV
BAgTCVdlc3QgSmF2YTEYMBYGA1UEChMPU2FpbnNtb2dyYWYuY29tMR8wHQYDVQQL
ExZFbnZpcm9ubWVudGFsIE1vZGVsaW5nMRcwFQYDVQQDEw5BUU0gUlBDIFNlcnZl
cjCCASIwDQYJKoZIhvcNAQEBBQADggEPADCCAQoCggEBAPJGgG8iXvt6JJ3mFOYO
mGX60jHnpeT7zbXaXoaUI/f6jGUMTSkDDexjgCfX77naC1pYHWMNwedh7Mu4gIGX
/ymBIonqCYg0cshozIHSo91Ln7u8zzVuZsJEeTv5VAFwMewSTe3btKJrZ7CxBv1a
h5fxD/SvS0YQE3CWYWdFe51YbqFkCeRn2xEXznarcK4sFE7iVRY3kebYHBUaZl2x
s4tMk03Hj6FW4eAl1aGBCik0SdZqtycA39ClaJzu0Yo02BvScXT/ncA8alM89jPM
JBgcx08BighGEpWR84keyx/iGyLYdzUgFGwh0xH9Xhr082aiMWc0z78kQt20kohF
DT0CAwEAATANBgkqhkiG9w0BAQQFAAOCAQEAlrhksWUqmSWRDhGVL+u2eKS5bMbs
kovc8r1AJh82BqiveoHDTu5xJUZgIQ3J5U0Hs4dN7aHdJKnoVi+KA50qyM8TlBnT
38GWUped8SlzgHGDtDaHJtf5HkqeLCO0oi32LcTYvaz1RoUZhfmA3jCShIVcW+GZ
9InGBgkMN2V7R+n4S/7frBOizko1L27F4dp4wnez//UcRy3Nl4FsH0g12Pazmme7
7SUW66GEgFfPIbzNobAYkAT1gM6ScoWkgIcWkkjMuIGwukgXd4mQ6g0B01E7Fvfq
z7E0N3sWnYmIRPjwX9t+2O6DXbnTCjSXwge0mPyPIF5Tz7pOboGDFdQPYQ==
-----END CERTIFICATE-----
