-----BEGIN PRIVATE KEY-----
MIIEvgIBADANBgkqhkiG9w0BAQEFAASCBKgwggSkAgEAAoIBAQDYEsfS9+m8vX/0
ybq2HHqLSnIV9OZX2g6YGxzMvei9JQeDO8bUfjTUpo22xZZd7ML2owp2YDn0Wr9Q
y1GcFTyo4NJGV6NkvYQK1Sl0o6Vx5fRBBp2HGWAv9bcDPt8ALNeFD7GkQm6Kbg0/
Ue2ArBc9ExN1XaPNEEM+iz9sqYn0HMRdp+icuAFImTpXdAdtVxZK0YzBVrfovexu
500VQJF/XPb2OyCUUB3Ltrli1XkuoPxh24nMbxEuf+9lbMN8F828QFMZJMKtODij
7Swr9UNfITnrYJziMzYmWQB9+kV8daA+8KZSNLa59HuG2/w7Pc76Z/HS9CWNFJAQ
AWhbC89ZAgMBAAECggEBAJs0akqU/1UufVH08WPMcw3IrMguwKJMJH2HxBkhNKNg
jNPsRTbvbL1u4Y5uwUK4RZbpqCM9nYNzB8deNEG8U3UvAHu8icZcBxPM59k7jySQ
O/HVcaPQS3JHumzfZUl37FtM2ZoWidZvlJ5uF/58HrklEa4VVAqBavvrA+Tmpwwr
p0+Wz6mZAnqP65kmL38lYNk1NLoXE3ShdswNR2ncW0+DtLPWeZuAhtJd1XCIOXHv
yM2yHb5m7xdBcJdHD+GnesDqmVb+mInyBTHSmqKvVcDztSQU/LW+O95DOWLVfoiy
oq/K/X4ISyWBb/s+3BWm7tF2Cm77EreApr2Z7CL1yZ0CgYEA+JeTvmqzmxrCB3N2
T5b4mqNL9ujp3WT57EA8/xguwYKcfpGb4S2UxbT3zkS+qmCSL8fPj9hoEUhtx9wO
Y8033c+xQ1ZhcDw9QOT3gD4cB1azeotVnmpW7XGPLNgTBdfNJ6tuMxLShYI7byR6
wbV+bOHRxpR4yQcoE+8alcIZRH8CgYEA3oMhGGewGMkx6U/zNUhJp68JegcbcRkf
05/34epzXyADON9rZeoNEm6y0zhsHxC+jjqtwMCNP4CG+imRJhK2IGtNrXJxL+Ju
2oLrGO3uKHWj4jaFqb5cV91xf0JC105hmAA20KtLJmFsuLhq1gMbduk7bGSLyUWR
IkMVBsQdoCcCgYEArl8UYVLTHQ8N3tAcwwMw6rd0h4Mk2AkGTbNZlc3OrioBv74/
Sxn/6xZfZC5QV45ZvG45p7qydL0LVE+FQHgoocwXmRY0TtfSV3zEJw5p9rPYPTMT
IYWR6Afp2BjQbx7KZvMW33hqdv+81N8PxGScg5962AI5HzmH4UOssDNwKd0CgYBP
pRwZgjO0C4AEBQwGzGMg1DROK3EVIGsV8rJleOfm6qx8lOv6RLZ9HIaBuDZrQDEU
88fxsHpeeoDV1j8QI65xGDdrmAUPoLsRF79S4wdWEBWjCOT7BxpCkQ7pACywqGui
XqFAO6/ggwrJa6lCBUa1X3JXr/2hA3eZje1eyJ/aDQKBgCshLCgGc1MrjxPkRW0E
yewpVDPrvjYBvXGBbeyVfeRS28SY5LKu5PlL7aeNCNvAYfBCRHjjDkitRUQbkrwr
4lWJ+xjD18UljQQmywEvrHTri+4BDJyqZ4ITTwEnBX4VrkOBk/3pwGLffQh6PAor
+NdYp8u8Rtdc52UC0mhTZ3vQ
-----END PRIVATE KEY-----
Certificate:
    Data:
        Version: 1 (0x0)
        Serial Number: 1 (0x1)
        Signature Algorithm: md5WithRSAEncryption
        Issuer: O=Sainsmograf.com, OU=Tech/emailAddress=arif@sainsmograf.com, L=Bandung, ST=West Java, C=ID, CN=Arif Widi Nugroho
        Validity
            Not Before: Mar  8 12:50:37 2012 GMT
            Not After : Mar  8 12:50:37 2014 GMT
        Subject: C=ID, ST=West Java, O=Sainsmograf.com, OU=AQM RPC Server, CN=127.0.0.1
        Subject Public Key Info:
            Public Key Algorithm: rsaEncryption
                Public-Key: (2048 bit)
                Modulus:
                    00:d8:12:c7:d2:f7:e9:bc:bd:7f:f4:c9:ba:b6:1c:
                    7a:8b:4a:72:15:f4:e6:57:da:0e:98:1b:1c:cc:bd:
                    e8:bd:25:07:83:3b:c6:d4:7e:34:d4:a6:8d:b6:c5:
                    96:5d:ec:c2:f6:a3:0a:76:60:39:f4:5a:bf:50:cb:
                    51:9c:15:3c:a8:e0:d2:46:57:a3:64:bd:84:0a:d5:
                    29:74:a3:a5:71:e5:f4:41:06:9d:87:19:60:2f:f5:
                    b7:03:3e:df:00:2c:d7:85:0f:b1:a4:42:6e:8a:6e:
                    0d:3f:51:ed:80:ac:17:3d:13:13:75:5d:a3:cd:10:
                    43:3e:8b:3f:6c:a9:89:f4:1c:c4:5d:a7:e8:9c:b8:
                    01:48:99:3a:57:74:07:6d:57:16:4a:d1:8c:c1:56:
                    b7:e8:bd:ec:6e:e7:4d:15:40:91:7f:5c:f6:f6:3b:
                    20:94:50:1d:cb:b6:b9:62:d5:79:2e:a0:fc:61:db:
                    89:cc:6f:11:2e:7f:ef:65:6c:c3:7c:17:cd:bc:40:
                    53:19:24:c2:ad:38:38:a3:ed:2c:2b:f5:43:5f:21:
                    39:eb:60:9c:e2:33:36:26:59:00:7d:fa:45:7c:75:
                    a0:3e:f0:a6:52:34:b6:b9:f4:7b:86:db:fc:3b:3d:
                    ce:fa:67:f1:d2:f4:25:8d:14:90:10:01:68:5b:0b:
                    cf:59
                Exponent: 65537 (0x10001)
    Signature Algorithm: md5WithRSAEncryption
        be:64:5d:46:31:02:8f:81:92:4a:e0:6f:f5:84:81:ee:95:34:
        e6:8b:e3:ca:5a:e3:8f:05:a7:13:39:fd:95:f9:34:e7:0a:91:
        27:cd:5c:6b:72:7d:9b:79:45:1f:df:8b:44:7e:e1:f0:74:d7:
        3d:d3:7a:ff:36:0a:2c:72:34:0c:b8:70:de:2e:a7:10:cd:17:
        0a:14:a6:50:b7:f9:66:ce:6e:6f:f5:a5:f8:02:2a:f3:f6:5c:
        3e:c2:87:ed:1c:93:a5:07:71:c8:27:bd:e2:88:29:f3:c6:b5:
        d3:71:e9:4f:79:70:f9:f8:b0:9b:d9:a3:65:fa:c2:b1:9b:82:
        38:5a:b3:6e:06:15:fb:34:f3:98:cc:8e:11:db:a9:de:3f:d6:
        52:22:ff:43:e9:22:6e:98:df:3d:48:1c:50:06:f6:6b:2c:83:
        57:5e:81:dc:49:d6:53:da:bd:de:f8:bb:31:fa:7f:ab:06:ab:
        fd:e1:18:5d:97:62:65:89:2e:cd:56:3b:10:a7:9d:95:7a:27:
        4f:c1:77:a3:b8:a8:e2:2c:e4:1a:23:8e:3e:c3:65:30:32:0f:
        ed:12:ed:e7:22:d9:5f:d0:4d:1b:9c:fa:c6:d5:95:94:5a:d5:
        f3:7d:a9:35:58:88:bd:9a:c2:49:b8:ba:4a:3a:b0:df:e0:9f:
        5c:9f:1b:75
-----BEGIN CERTIFICATE-----
MIIDejCCAmICAQEwDQYJKoZIhvcNAQEEBQAwgZ0xGDAWBgNVBAoTD1NhaW5zbW9n
cmFmLmNvbTENMAsGA1UECxMEVGVjaDEjMCEGCSqGSIb3DQEJARYUYXJpZkBzYWlu
c21vZ3JhZi5jb20xEDAOBgNVBAcTB0JhbmR1bmcxEjAQBgNVBAgTCVdlc3QgSmF2
YTELMAkGA1UEBhMCSUQxGjAYBgNVBAMTEUFyaWYgV2lkaSBOdWdyb2hvMB4XDTEy
MDMwODEyNTAzN1oXDTE0MDMwODEyNTAzN1owaDELMAkGA1UEBhMCSUQxEjAQBgNV
BAgTCVdlc3QgSmF2YTEYMBYGA1UEChMPU2FpbnNtb2dyYWYuY29tMRcwFQYDVQQL
Ew5BUU0gUlBDIFNlcnZlcjESMBAGA1UEAxMJMTI3LjAuMC4xMIIBIjANBgkqhkiG
9w0BAQEFAAOCAQ8AMIIBCgKCAQEA2BLH0vfpvL1/9Mm6thx6i0pyFfTmV9oOmBsc
zL3ovSUHgzvG1H401KaNtsWWXezC9qMKdmA59Fq/UMtRnBU8qODSRlejZL2ECtUp
dKOlceX0QQadhxlgL/W3Az7fACzXhQ+xpEJuim4NP1HtgKwXPRMTdV2jzRBDPos/
bKmJ9BzEXafonLgBSJk6V3QHbVcWStGMwVa36L3sbudNFUCRf1z29jsglFAdy7a5
YtV5LqD8YduJzG8RLn/vZWzDfBfNvEBTGSTCrTg4o+0sK/VDXyE562Cc4jM2JlkA
ffpFfHWgPvCmUjS2ufR7htv8Oz3O+mfx0vQljRSQEAFoWwvPWQIDAQABMA0GCSqG
SIb3DQEBBAUAA4IBAQC+ZF1GMQKPgZJK4G/1hIHulTTmi+PKWuOPBacTOf2V+TTn
CpEnzVxrcn2beUUf34tEfuHwdNc903r/NgoscjQMuHDeLqcQzRcKFKZQt/lmzm5v
9aX4Airz9lw+woftHJOlB3HIJ73iiCnzxrXTcelPeXD5+LCb2aNl+sKxm4I4WrNu
BhX7NPOYzI4R26neP9ZSIv9D6SJumN89SBxQBvZrLINXXoHcSdZT2r3e+Lsx+n+r
Bqv94Rhdl2JliS7NVjsQp52VeidPwXejuKjiLOQaI44+w2UwMg/tEu3nItlf0E0b
nPrG1ZWUWtXzfak1WIi9msJJuLpKOrDf4J9cnxt1
-----END CERTIFICATE-----
